; Function Attrs: nounwind uwtable
define dso_local void @linenoiseEditMoveLeft(ptr noundef captures(none) %0) local_unnamed_addr #10 {
  %2 = getelementptr inbounds nuw i8, ptr %0, i64 48
  %3 = load i64, ptr %2, align 8, !tbaa !26
  %.not = icmp eq i64 %3, 0
  br i1 %.not, label %6, label %4

4:                                                ; preds = %1
  %5 = add i64 %3, -1
  store i64 %5, ptr %2, align 8, !tbaa !26
  tail call fastcc void @refreshLine(ptr noundef nonnull %0)
  br label %6

6:                                                ; preds = %4, %1
  ret void
}